target datalayout = "e-m:e-p270:32:32-p271:32:32-p272:64:64-i64:64-i128:128-f80:128-n8:16:32:64-S128"
target triple = "x86_64-pc-linux-gnu"

%struct.KINMemRec = type { double, ptr, ptr, double, double, i32, i32, i64, i64, i64, i64, i32, i32, i32, i32, i32, i32, i32, i32, i32, double, double, double, double, double, double, double, double, double, i32, double, i64, i64, i64, i64, i64, i64, i64, ptr, ptr, ptr, ptr, ptr, ptr, ptr, ptr, ptr, ptr, ptr, ptr, ptr, ptr, ptr, ptr, ptr, ptr, i64, i32, i32, i64, i64, i64, i64, ptr, ptr, ptr, ptr, i32, ptr, double, double, double, double, double, i32, double, double, double, i32, ptr, ptr, ptr, ptr, ptr, ptr }
%struct.KBBDPrecDataRec = type { i64, i64, i64, i64, ptr, ptr, double, ptr, ptr, ptr, i64, i64, i64, i64, ptr }
%struct.KINSpilsMemRec = type { i32, i32, i32, i32, i32, i32, i64, i64, i64, i64, i64, i64, ptr, i64, ptr, ptr, ptr, ptr, i32, ptr, ptr }

@.str = private unnamed_addr constant [10 x i8] c"KINBBDPRE\00", align 1
@.str.2 = private unnamed_addr constant [23 x i8] c"KINSOL Memory is NULL.\00", align 1
@.str.3 = private unnamed_addr constant [80 x i8] c"Linear solver memory is NULL. One of the SPILS linear solvers must be attached.\00", align 1
@.str.6 = private unnamed_addr constant [23 x i8] c"KINBBDPrecGetWorkSpace\00", align 1
@.str.7 = private unnamed_addr constant [65 x i8] c"BBD peconditioner memory is NULL. IDABBDPrecInit must be called.\00", align 1

; Function Attrs: nounwind uwtable
define i32 @KINBBDPrecGetWorkSpace(ptr noundef %0, ptr noundef %1, ptr noundef %2) #0 {
  %4 = alloca i32, align 4
  %5 = alloca ptr, align 8
  %6 = alloca ptr, align 8
  %7 = alloca ptr, align 8
  %8 = alloca ptr, align 8
  %9 = alloca ptr, align 8
  %10 = alloca ptr, align 8
  %11 = alloca i32, align 4
  store ptr %0, ptr %5, align 8, !tbaa !3
  store ptr %1, ptr %6, align 8, !tbaa !55
  store ptr %2, ptr %7, align 8, !tbaa !55
  call void @llvm.lifetime.start.p0(i64 8, ptr %8) #5
  call void @llvm.lifetime.start.p0(i64 8, ptr %9) #5
  call void @llvm.lifetime.start.p0(i64 8, ptr %10) #5
  %12 = load ptr, ptr %5, align 8, !tbaa !3
  %13 = icmp eq ptr %12, null
  br i1 %13, label %14, label %15

14:                                               ; preds = %3
  call void (ptr, i32, ptr, ptr, ptr, ...) @KINProcessError(ptr noundef null, i32 noundef -1, ptr noundef @.str, ptr noundef @.str.6, ptr noundef @.str.2)
  store i32 -1, ptr %4, align 4
  store i32 1, ptr %11, align 4
  br label %45

15:                                               ; preds = %3
  %16 = load ptr, ptr %5, align 8, !tbaa !3
  store ptr %16, ptr %8, align 8, !tbaa !13
  %17 = load ptr, ptr %8, align 8, !tbaa !13
  %18 = getelementptr inbounds nuw %struct.KINMemRec, ptr %17, i32 0, i32 68
  %19 = load ptr, ptr %18, align 8, !tbaa !15
  %20 = icmp eq ptr %19, null
  br i1 %20, label %21, label %23

21:                                               ; preds = %15
  %22 = load ptr, ptr %8, align 8, !tbaa !13
  call void (ptr, i32, ptr, ptr, ptr, ...) @KINProcessError(ptr noundef %22, i32 noundef -2, ptr noundef @.str, ptr noundef @.str.6, ptr noundef @.str.3)
  store i32 -2, ptr %4, align 4
  store i32 1, ptr %11, align 4
  br label %45

23:                                               ; preds = %15
  %24 = load ptr, ptr %8, align 8, !tbaa !13
  %25 = getelementptr inbounds nuw %struct.KINMemRec, ptr %24, i32 0, i32 68
  %26 = load ptr, ptr %25, align 8, !tbaa !15
  store ptr %26, ptr %9, align 8, !tbaa !22
  %27 = load ptr, ptr %9, align 8, !tbaa !22
  %28 = getelementptr inbounds nuw %struct.KINSpilsMemRec, ptr %27, i32 0, i32 17
  %29 = load ptr, ptr %28, align 8, !tbaa !50
  %30 = icmp eq ptr %29, null
  br i1 %30, label %31, label %33

31:                                               ; preds = %23
  %32 = load ptr, ptr %8, align 8, !tbaa !13
  call void (ptr, i32, ptr, ptr, ptr, ...) @KINProcessError(ptr noundef %32, i32 noundef -5, ptr noundef @.str, ptr noundef @.str.6, ptr noundef @.str.7)
  store i32 -5, ptr %4, align 4
  store i32 1, ptr %11, align 4
  br label %45

33:                                               ; preds = %23
  %34 = load ptr, ptr %9, align 8, !tbaa !22
  %35 = getelementptr inbounds nuw %struct.KINSpilsMemRec, ptr %34, i32 0, i32 17
  %36 = load ptr, ptr %35, align 8, !tbaa !50
  store ptr %36, ptr %10, align 8, !tbaa !11
  %37 = load ptr, ptr %10, align 8, !tbaa !11
  %38 = getelementptr inbounds nuw %struct.KBBDPrecDataRec, ptr %37, i32 0, i32 11
  %39 = load i64, ptr %38, align 8, !tbaa !47
  %40 = load ptr, ptr %6, align 8, !tbaa !55
  store i64 %39, ptr %40, align 8, !tbaa !7
  %41 = load ptr, ptr %10, align 8, !tbaa !11
  %42 = getelementptr inbounds nuw %struct.KBBDPrecDataRec, ptr %41, i32 0, i32 12
  %43 = load i64, ptr %42, align 8, !tbaa !48
  %44 = load ptr, ptr %7, align 8, !tbaa !55
  store i64 %43, ptr %44, align 8, !tbaa !7
  store i32 0, ptr %4, align 4
  store i32 1, ptr %11, align 4
  br label %45

45:                                               ; preds = %33, %31, %21, %14
  call void @llvm.lifetime.end.p0(i64 8, ptr %10) #5
  call void @llvm.lifetime.end.p0(i64 8, ptr %9) #5
  call void @llvm.lifetime.end.p0(i64 8, ptr %8) #5
  %46 = load i32, ptr %4, align 4
  ret i32 %46
}